; Function Attrs: mustprogress nofree norecurse nosync nounwind willreturn memory(argmem: write) uwtable
define void @_ZN3gmx19StatePropagatorData7Element32registerTrajectoryWriterCallbackENS_15TrajectoryEventE(ptr dead_on_unwind noalias nocapture writable writeonly sret(%"class.std::optional.27") align 8 %0, ptr noundef nonnull align 8 dereferenceable(272) %1, i32 noundef %2) unnamed_addr #2 align 2 personality ptr @__gxx_personality_v0 {
  %4 = icmp eq i32 %2, 0
  br i1 %4, label %5, label %10

5:                                                ; preds = %3
  %6 = getelementptr inbounds i8, ptr %0, i64 16
  %7 = getelementptr inbounds i8, ptr %0, i64 24
  %8 = getelementptr inbounds i8, ptr %0, i64 8
  store i64 0, ptr %8, align 8
  %9 = ptrtoint ptr %1 to i64
  store i64 %9, ptr %0, align 8
  store ptr @"_ZNSt17_Function_handlerIFvP10gmx_mdoutfldbbEZN3gmx19StatePropagatorData7Element32registerTrajectoryWriterCallbackENS3_15TrajectoryEventEE3$_0E9_M_invokeERKSt9_Any_dataOS1_OlOdObSF_", ptr %7, align 8
  store ptr @"_ZNSt17_Function_handlerIFvP10gmx_mdoutfldbbEZN3gmx19StatePropagatorData7Element32registerTrajectoryWriterCallbackENS3_15TrajectoryEventEE3$_0E10_M_managerERSt9_Any_dataRKS9_St18_Manager_operation", ptr %6, align 8
  br label %10

10:                                               ; preds = %3, %5
  %.sink = phi i8 [ 1, %5 ], [ 0, %3 ]
  %11 = getelementptr inbounds i8, ptr %0, i64 32
  store i8 %.sink, ptr %11, align 8
  ret void
}